; Function Attrs: mustprogress uwtable
define internal fastcc noundef range(i32 0, -1) i32 @_ZNK5Yosys7hashlib4dictISt4pairINS_5RTLIL8IdStringEiEN12_GLOBAL__N_114mutate_queue_tENS0_8hash_opsIS5_EEE7do_hashERKS5_(ptr noundef nonnull readonly align 8 captures(none) dereferenceable(49) %0, ptr noundef nonnull readonly align 4 captures(none) dereferenceable(8) %1) unnamed_addr #5 align 2 personality ptr @__gxx_personality_v0 {
  %3 = alloca %"struct.std::pair.314", align 4
  %4 = load ptr, ptr %0, align 8, !tbaa !79
  %5 = getelementptr inbounds nuw i8, ptr %0, i64 8
  %6 = load ptr, ptr %5, align 8, !tbaa !79
  %7 = icmp eq ptr %4, %6
  br i1 %7, label %_ZNSt4pairIN5Yosys5RTLIL8IdStringEiED2Ev.exit, label %8

8:                                                ; preds = %2
  %9 = load i32, ptr %1, align 4, !tbaa !36
  %.not.i.i.i = icmp eq i32 %9, 0
  br i1 %.not.i.i.i, label %_ZNSt4pairIN5Yosys5RTLIL8IdStringEiEC2ERKS3_.exit, label %10

10:                                               ; preds = %8
  %11 = sext i32 %9 to i64
  %12 = load ptr, ptr @_ZN5Yosys5RTLIL8IdString24global_refcount_storage_E, align 8, !tbaa !62
  %13 = getelementptr inbounds nuw i32, ptr %12, i64 %11
  %14 = load i32, ptr %13, align 4, !tbaa !63
  %15 = add nsw i32 %14, 1
  store i32 %15, ptr %13, align 4, !tbaa !63
  br label %_ZNSt4pairIN5Yosys5RTLIL8IdStringEiEC2ERKS3_.exit

_ZNSt4pairIN5Yosys5RTLIL8IdStringEiEC2ERKS3_.exit: ; preds = %8, %10
  store i32 %9, ptr %3, align 4, !tbaa !36
  %16 = getelementptr inbounds nuw i8, ptr %3, i64 4
  %17 = getelementptr inbounds nuw i8, ptr %1, i64 4
  %18 = load i32, ptr %17, align 4, !tbaa !441
  store i32 %18, ptr %16, align 4, !tbaa !441
  %19 = invoke i32 @_ZN5Yosys7hashlib8hash_opsISt4pairINS_5RTLIL8IdStringEiEE4hashES5_(ptr noundef nonnull %3)
          to label %20 unwind label %44

20:                                               ; preds = %_ZNSt4pairIN5Yosys5RTLIL8IdStringEiEC2ERKS3_.exit
  %21 = load ptr, ptr %5, align 8, !tbaa !188
  %22 = load ptr, ptr %0, align 8, !tbaa !62
  %23 = ptrtoint ptr %21 to i64
  %24 = ptrtoint ptr %22 to i64
  %25 = sub i64 %23, %24
  %26 = lshr exact i64 %25, 2
  %27 = trunc i64 %26 to i32
  %28 = urem i32 %19, %27
  %29 = load i32, ptr %3, align 4, !tbaa !36
  %30 = load i8, ptr @_ZN5Yosys5RTLIL8IdString17destruct_guard_okE, align 1, !tbaa !59, !range !60, !noundef !61
  %31 = trunc nuw i8 %30 to i1
  %32 = icmp ne i32 %29, 0
  %or.cond.i.i.i = and i1 %32, %31
  br i1 %or.cond.i.i.i, label %33, label %_ZNSt4pairIN5Yosys5RTLIL8IdStringEiED2Ev.exit

33:                                               ; preds = %20
  %34 = sext i32 %29 to i64
  %35 = load ptr, ptr @_ZN5Yosys5RTLIL8IdString24global_refcount_storage_E, align 8, !tbaa !62
  %36 = getelementptr inbounds nuw i32, ptr %35, i64 %34
  %37 = load i32, ptr %36, align 4, !tbaa !63
  %38 = add nsw i32 %37, -1
  store i32 %38, ptr %36, align 4, !tbaa !63
  %39 = icmp sgt i32 %37, 1
  br i1 %39, label %_ZNSt4pairIN5Yosys5RTLIL8IdStringEiED2Ev.exit, label %40

40:                                               ; preds = %33
  invoke void @_ZN5Yosys5RTLIL8IdString14free_referenceEi(i32 noundef %29)
          to label %_ZNSt4pairIN5Yosys5RTLIL8IdStringEiED2Ev.exit unwind label %41

41:                                               ; preds = %40
  %42 = landingpad { ptr, i32 }
          catch ptr null
  %43 = extractvalue { ptr, i32 } %42, 0
  call void @__clang_call_terminate(ptr %43) #32
  unreachable

44:                                               ; preds = %_ZNSt4pairIN5Yosys5RTLIL8IdStringEiEC2ERKS3_.exit
  %45 = landingpad { ptr, i32 }
          cleanup
  call void @_ZNSt4pairIN5Yosys5RTLIL8IdStringEiED2Ev(ptr noundef nonnull align 4 dereferenceable(8) %3) #30
  resume { ptr, i32 } %45

_ZNSt4pairIN5Yosys5RTLIL8IdStringEiED2Ev.exit:    ; preds = %40, %33, %20, %2
  %.0 = phi i32 [ 0, %2 ], [ %28, %20 ], [ %28, %33 ], [ %28, %40 ]
  ret i32 %.0
}